/*
 * Intel ACPI Component Architecture
 * AML/ASL+ Disassembler version 20230628 (64-bit version)
 * Copyright (c) 2000 - 2023 Intel Corporation
 * 
 * Disassembly of APIC.dat, Wed May  6 22:41:44 2026
 *
 * ACPI Data Table [APIC]
 *
 * Format: [HexOffset DecimalOffset ByteLength]  FieldName : FieldValue (in hex)
 */

[000h 0000 004h]                   Signature : "APIC"    [Multiple APIC Description Table (MADT)]
[004h 0004 004h]                Table Length : 000000BC
[008h 0008 001h]                    Revision : 03
[009h 0009 001h]                    Checksum : C9
[00Ah 0010 006h]                      Oem ID : "LENOVO"
[010h 0016 008h]                Oem Table ID : "CB-01   "
[018h 0024 004h]                Oem Revision : 00000001
[01Ch 0028 004h]             Asl Compiler ID : "ACPI"
[020h 0032 004h]       Asl Compiler Revision : 00040000

[024h 0036 004h]          Local Apic Address : FEE00000
[028h 0040 004h]       Flags (decoded below) : 00000001
                         PC-AT Compatibility : 1

[02Ch 0044 001h]               Subtable Type : 00 [Processor Local APIC]
[02Dh 0045 001h]                      Length : 08
[02Eh 0046 001h]                Processor ID : 01
[02Fh 0047 001h]               Local Apic ID : 00
[030h 0048 004h]       Flags (decoded below) : 00000001
                           Processor Enabled : 1
                      Runtime Online Capable : 0

[034h 0052 001h]               Subtable Type : 00 [Processor Local APIC]
[035h 0053 001h]                      Length : 08
[036h 0054 001h]                Processor ID : 02
[037h 0055 001h]               Local Apic ID : 02
[038h 0056 004h]       Flags (decoded below) : 00000001
                           Processor Enabled : 1
                      Runtime Online Capable : 0

[03Ch 0060 001h]               Subtable Type : 00 [Processor Local APIC]
[03Dh 0061 001h]                      Length : 08
[03Eh 0062 001h]                Processor ID : 03
[03Fh 0063 001h]               Local Apic ID : 01
[040h 0064 004h]       Flags (decoded below) : 00000001
                           Processor Enabled : 1
                      Runtime Online Capable : 0

[044h 0068 001h]               Subtable Type : 00 [Processor Local APIC]
[045h 0069 001h]                      Length : 08
[046h 0070 001h]                Processor ID : 04
[047h 0071 001h]               Local Apic ID : 03
[048h 0072 004h]       Flags (decoded below) : 00000001
                           Processor Enabled : 1
                      Runtime Online Capable : 0

[04Ch 0076 001h]               Subtable Type : 00 [Processor Local APIC]
[04Dh 0077 001h]                      Length : 08
[04Eh 0078 001h]                Processor ID : 05
[04Fh 0079 001h]               Local Apic ID : FF
[050h 0080 004h]       Flags (decoded below) : 00000000
                           Processor Enabled : 0
                      Runtime Online Capable : 0

[054h 0084 001h]               Subtable Type : 00 [Processor Local APIC]
[055h 0085 001h]                      Length : 08
[056h 0086 001h]                Processor ID : 06
[057h 0087 001h]               Local Apic ID : FF
[058h 0088 004h]       Flags (decoded below) : 00000000
                           Processor Enabled : 0
                      Runtime Online Capable : 0

[05Ch 0092 001h]               Subtable Type : 00 [Processor Local APIC]
[05Dh 0093 001h]                      Length : 08
[05Eh 0094 001h]                Processor ID : 07
[05Fh 0095 001h]               Local Apic ID : FF
[060h 0096 004h]       Flags (decoded below) : 00000000
                           Processor Enabled : 0
                      Runtime Online Capable : 0

[064h 0100 001h]               Subtable Type : 00 [Processor Local APIC]
[065h 0101 001h]                      Length : 08
[066h 0102 001h]                Processor ID : 08
[067h 0103 001h]               Local Apic ID : FF
[068h 0104 004h]       Flags (decoded below) : 00000000
                           Processor Enabled : 0
                      Runtime Online Capable : 0

[06Ch 0108 001h]               Subtable Type : 01 [I/O APIC]
[06Dh 0109 001h]                      Length : 0C
[06Eh 0110 001h]                 I/O Apic ID : 02
[06Fh 0111 001h]                    Reserved : 00
[070h 0112 004h]                     Address : FEC00000
[074h 0116 004h]                   Interrupt : 00000000

[078h 0120 001h]               Subtable Type : 02 [Interrupt Source Override]
[079h 0121 001h]                      Length : 0A
[07Ah 0122 001h]                         Bus : 00
[07Bh 0123 001h]                      Source : 00
[07Ch 0124 004h]                   Interrupt : 00000002
[080h 0128 002h]       Flags (decoded below) : 0000
                                    Polarity : 0
                                Trigger Mode : 0

[082h 0130 001h]               Subtable Type : 02 [Interrupt Source Override]
[083h 0131 001h]                      Length : 0A
[084h 0132 001h]                         Bus : 00
[085h 0133 001h]                      Source : 09
[086h 0134 004h]                   Interrupt : 00000009
[08Ah 0138 002h]       Flags (decoded below) : 000D
                                    Polarity : 1
                                Trigger Mode : 3

[08Ch 0140 001h]               Subtable Type : 04 [Local APIC NMI]
[08Dh 0141 001h]                      Length : 06
[08Eh 0142 001h]                Processor ID : 01
[08Fh 0143 002h]       Flags (decoded below) : 0005
                                    Polarity : 1
                                Trigger Mode : 1
[091h 0145 001h]        Interrupt Input LINT : 01

[092h 0146 001h]               Subtable Type : 04 [Local APIC NMI]
[093h 0147 001h]                      Length : 06
[094h 0148 001h]                Processor ID : 02
[095h 0149 002h]       Flags (decoded below) : 0005
                                    Polarity : 1
                                Trigger Mode : 1
[097h 0151 001h]        Interrupt Input LINT : 01

[098h 0152 001h]               Subtable Type : 04 [Local APIC NMI]
[099h 0153 001h]                      Length : 06
[09Ah 0154 001h]                Processor ID : 03
[09Bh 0155 002h]       Flags (decoded below) : 0005
                                    Polarity : 1
                                Trigger Mode : 1
[09Dh 0157 001h]        Interrupt Input LINT : 01

[09Eh 0158 001h]               Subtable Type : 04 [Local APIC NMI]
[09Fh 0159 001h]                      Length : 06
[0A0h 0160 001h]                Processor ID : 04
[0A1h 0161 002h]       Flags (decoded below) : 0005
                                    Polarity : 1
                                Trigger Mode : 1
[0A3h 0163 001h]        Interrupt Input LINT : 01

[0A4h 0164 001h]               Subtable Type : 04 [Local APIC NMI]
[0A5h 0165 001h]                      Length : 06
[0A6h 0166 001h]                Processor ID : 05
[0A7h 0167 002h]       Flags (decoded below) : 0005
                                    Polarity : 1
                                Trigger Mode : 1
[0A9h 0169 001h]        Interrupt Input LINT : 01

[0AAh 0170 001h]               Subtable Type : 04 [Local APIC NMI]
[0ABh 0171 001h]                      Length : 06
[0ACh 0172 001h]                Processor ID : 06
[0ADh 0173 002h]       Flags (decoded below) : 0005
                                    Polarity : 1
                                Trigger Mode : 1
[0AFh 0175 001h]        Interrupt Input LINT : 01

[0B0h 0176 001h]               Subtable Type : 04 [Local APIC NMI]
[0B1h 0177 001h]                      Length : 06
[0B2h 0178 001h]                Processor ID : 07
[0B3h 0179 002h]       Flags (decoded below) : 0005
                                    Polarity : 1
                                Trigger Mode : 1
[0B5h 0181 001h]        Interrupt Input LINT : 01

[0B6h 0182 001h]               Subtable Type : 04 [Local APIC NMI]
[0B7h 0183 001h]                      Length : 06
[0B8h 0184 001h]                Processor ID : 08
[0B9h 0185 002h]       Flags (decoded below) : 0005
                                    Polarity : 1
                                Trigger Mode : 1
[0BBh 0187 001h]        Interrupt Input LINT : 01

Raw Table Data: Length 188 (0xBC)

    0000: 41 50 49 43 BC 00 00 00 03 C9 4C 45 4E 4F 56 4F  // APIC......LENOVO
    0010: 43 42 2D 30 31 20 20 20 01 00 00 00 41 43 50 49  // CB-01   ....ACPI
    0020: 00 00 04 00 00 00 E0 FE 01 00 00 00 00 08 01 00  // ................
    0030: 01 00 00 00 00 08 02 02 01 00 00 00 00 08 03 01  // ................
    0040: 01 00 00 00 00 08 04 03 01 00 00 00 00 08 05 FF  // ................
    0050: 00 00 00 00 00 08 06 FF 00 00 00 00 00 08 07 FF  // ................
    0060: 00 00 00 00 00 08 08 FF 00 00 00 00 01 0C 02 00  // ................
    0070: 00 00 C0 FE 00 00 00 00 02 0A 00 00 02 00 00 00  // ................
    0080: 00 00 02 0A 00 09 09 00 00 00 0D 00 04 06 01 05  // ................
    0090: 00 01 04 06 02 05 00 01 04 06 03 05 00 01 04 06  // ................
    00A0: 04 05 00 01 04 06 05 05 00 01 04 06 06 05 00 01  // ................
    00B0: 04 06 07 05 00 01 04 06 08 05 00 01              // ............
