/*
 * Intel ACPI Component Architecture
 * AML/ASL+ Disassembler version 20230628 (64-bit version)
 * Copyright (c) 2000 - 2023 Intel Corporation
 * 
 * Disassembly of FPDT.dat, Sun May 17 00:38:58 2026
 *
 * ACPI Data Table [FPDT]
 *
 * Format: [HexOffset DecimalOffset ByteLength]  FieldName : FieldValue (in hex)
 */

[000h 0000 004h]                   Signature : "FPDT"    [Firmware Performance Data Table]
[004h 0004 004h]                Table Length : 00000044
[008h 0008 001h]                    Revision : 01
[009h 0009 001h]                    Checksum : C8
[00Ah 0010 006h]                      Oem ID : "LENOVO"
[010h 0016 008h]                Oem Table ID : "CB-01   "
[018h 0024 004h]                Oem Revision : 00000001
[01Ch 0028 004h]             Asl Compiler ID : "ACPI"
[020h 0032 004h]       Asl Compiler Revision : 00040000


[024h 0036 002h]               Subtable Type : 0000
[026h 0038 001h]                      Length : 10
[027h 0039 001h]                    Revision : 01
[028h 0040 004h]                    Reserved : 00000000
[02Ch 0044 008h]    FPDT Boot Record Address : 000000008C29F000

[034h 0052 002h]               Subtable Type : 0001
[036h 0054 001h]                      Length : 10
[037h 0055 001h]                    Revision : 01
[038h 0056 004h]                    Reserved : 00000000
[03Ch 0060 008h]         S3PT Record Address : 000000008C29E000

Raw Table Data: Length 68 (0x44)

    0000: 46 50 44 54 44 00 00 00 01 C8 4C 45 4E 4F 56 4F  // FPDTD.....LENOVO
    0010: 43 42 2D 30 31 20 20 20 01 00 00 00 41 43 50 49  // CB-01   ....ACPI
    0020: 00 00 04 00 00 00 10 01 00 00 00 00 00 F0 29 8C  // ..............).
    0030: 00 00 00 00 01 00 10 01 00 00 00 00 00 E0 29 8C  // ..............).
    0040: 00 00 00 00                                      // ....
